target datalayout = "e-m:e-p270:32:32-p271:32:32-p272:64:64-i64:64-i128:128-f80:128-n8:16:32:64-S128"
target triple = "x86_64-pc-linux-gnu"

%struct.rgb_cache_s = type { i32, [16 x i32], [16 x i32] }
%union.attr_s = type { %struct.anon }
%struct.anon = type { i64 }
%struct.term_s = type { i32, i64, i64, i64, i8, i8, i8, %union.attr_s, i32, i32, ptr, ptr, ptr }

@.str.427 = private unnamed_addr constant [8 x i8] c"\1B[1;%dm\00", align 1
@.str.428 = private unnamed_addr constant [9 x i8] c"\1B[22;%dm\00", align 1
@color_to_ansi8.ansi8_cache = internal global %struct.rgb_cache_s zeroinitializer, align 4
@.str.429 = private unnamed_addr constant [6 x i8] c"\1B[%dm\00", align 1
@color_to_ansi16.ansi16_cache = internal global %struct.rgb_cache_s zeroinitializer, align 4
@.str.430 = private unnamed_addr constant [11 x i8] c"\1B[%d;5;%dm\00", align 1
@rgb_to_ansi256.ansi256_cache = internal global %struct.rgb_cache_s zeroinitializer, align 4
@.str.431 = private unnamed_addr constant [17 x i8] c"\1B[%d;2;%d;%d;%dm\00", align 1

; Function Attrs: inlinehint nounwind uwtable
define internal i64 @to_ssize_t(i64 noundef %0) #4 {
  %2 = alloca i64, align 8
  store i64 %0, ptr %2, align 8, !tbaa !9
  %3 = load i64, ptr %2, align 8, !tbaa !9
  %4 = icmp ule i64 %3, 9223372036854775807
  br i1 %4, label %5, label %7

5:                                                ; preds = %1
  %6 = load i64, ptr %2, align 8, !tbaa !9
  br label %8

7:                                                ; preds = %1
  br label %8

8:                                                ; preds = %7, %5
  %9 = phi i64 [ %6, %5 ], [ 0, %7 ]
  ret i64 %9
}

; Function Attrs: nounwind uwtable
define internal void @color_to_rgb(i32 noundef %0, ptr noundef %1, ptr noundef %2, ptr noundef %3) #0 {
  %5 = alloca i32, align 4
  %6 = alloca ptr, align 8
  %7 = alloca ptr, align 8
  %8 = alloca ptr, align 8
  store i32 %0, ptr %5, align 4, !tbaa !115
  store ptr %1, ptr %6, align 8, !tbaa !200
  store ptr %2, ptr %7, align 8, !tbaa !200
  store ptr %3, ptr %8, align 8, !tbaa !200
  %9 = load i32, ptr %5, align 4, !tbaa !115
  %10 = lshr i32 %9, 16
  %11 = and i32 %10, 255
  %12 = load ptr, ptr %6, align 8, !tbaa !200
  store i32 %11, ptr %12, align 4, !tbaa !115
  %13 = load i32, ptr %5, align 4, !tbaa !115
  %14 = lshr i32 %13, 8
  %15 = and i32 %14, 255
  %16 = load ptr, ptr %7, align 8, !tbaa !200
  store i32 %15, ptr %16, align 4, !tbaa !115
  %17 = load i32, ptr %5, align 4, !tbaa !115
  %18 = and i32 %17, 255
  %19 = load ptr, ptr %8, align 8, !tbaa !200
  store i32 %18, ptr %19, align 4, !tbaa !115
  ret void
}

; Function Attrs: nounwind uwtable
define internal i32 @rgb_to_ansi256(i32 noundef %0) #0 {
  %2 = alloca i32, align 4
  %3 = alloca i32, align 4
  store i32 %0, ptr %2, align 4, !tbaa !115
  call void @llvm.lifetime.start.p0(i64 4, ptr %3) #13
  %4 = load i32, ptr %2, align 4, !tbaa !115
  %5 = call i32 @rgb_match(ptr noundef @ansi256, i32 noundef 16, i32 noundef 256, ptr noundef @rgb_to_ansi256.ansi256_cache, i32 noundef %4)
  store i32 %5, ptr %3, align 4, !tbaa !115
  %6 = load i32, ptr %3, align 4, !tbaa !115
  call void @llvm.lifetime.end.p0(i64 4, ptr %3) #13
  ret i32 %6
}

; Function Attrs: nounwind uwtable
define internal i32 @color_to_ansi16(i32 noundef %0) #0 {
  %2 = alloca i32, align 4
  %3 = alloca i32, align 4
  %4 = alloca i32, align 4
  store i32 %0, ptr %3, align 4, !tbaa !115
  %5 = load i32, ptr %3, align 4, !tbaa !115
  %6 = call zeroext i1 @color_is_rgb(i32 noundef %5)
  br i1 %6, label %9, label %7

7:                                                ; preds = %1
  %8 = load i32, ptr %3, align 4, !tbaa !115
  store i32 %8, ptr %2, align 4
  br label %23

9:                                                ; preds = %1
  call void @llvm.lifetime.start.p0(i64 4, ptr %4) #13
  %10 = load i32, ptr %3, align 4, !tbaa !115
  %11 = call i32 @rgb_match(ptr noundef @ansi256, i32 noundef 0, i32 noundef 16, ptr noundef @color_to_ansi16.ansi16_cache, i32 noundef %10)
  store i32 %11, ptr %4, align 4, !tbaa !115
  %12 = load i32, ptr %4, align 4, !tbaa !115
  %13 = icmp slt i32 %12, 8
  br i1 %13, label %14, label %17

14:                                               ; preds = %9
  %15 = load i32, ptr %4, align 4, !tbaa !115
  %16 = add nsw i32 30, %15
  br label %21

17:                                               ; preds = %9
  %18 = load i32, ptr %4, align 4, !tbaa !115
  %19 = add nsw i32 90, %18
  %20 = sub nsw i32 %19, 8
  br label %21

21:                                               ; preds = %17, %14
  %22 = phi i32 [ %16, %14 ], [ %20, %17 ]
  store i32 %22, ptr %2, align 4
  call void @llvm.lifetime.end.p0(i64 4, ptr %4) #13
  br label %23

23:                                               ; preds = %21, %7
  %24 = load i32, ptr %2, align 4
  ret i32 %24
}

; Function Attrs: inlinehint nounwind uwtable
define internal i64 @to_size_t(i64 noundef %0) #4 {
  %2 = alloca i64, align 8
  store i64 %0, ptr %2, align 8, !tbaa !9
  %3 = load i64, ptr %2, align 8, !tbaa !9
  %4 = icmp sge i64 %3, 0
  br i1 %4, label %5, label %7

5:                                                ; preds = %1
  %6 = load i64, ptr %2, align 8, !tbaa !9
  br label %8

7:                                                ; preds = %1
  br label %8

8:                                                ; preds = %7, %5
  %9 = phi i64 [ %6, %5 ], [ 0, %7 ]
  ret i64 %9
}

; Function Attrs: nounwind uwtable
define internal i32 @color_to_ansi8(i32 noundef %0) #0 {
  %2 = alloca i32, align 4
  %3 = alloca i32, align 4
  %4 = alloca i32, align 4
  %5 = alloca i32, align 4
  %6 = alloca i32, align 4
  %7 = alloca i32, align 4
  store i32 %0, ptr %3, align 4, !tbaa !115
  %8 = load i32, ptr %3, align 4, !tbaa !115
  %9 = call zeroext i1 @color_is_rgb(i32 noundef %8)
  br i1 %9, label %12, label %10

10:                                               ; preds = %1
  %11 = load i32, ptr %3, align 4, !tbaa !115
  store i32 %11, ptr %2, align 4
  br label %30

12:                                               ; preds = %1
  call void @llvm.lifetime.start.p0(i64 4, ptr %4) #13
  %13 = load i32, ptr %3, align 4, !tbaa !115
  %14 = call i32 @rgb_match(ptr noundef @ansi256, i32 noundef 0, i32 noundef 8, ptr noundef @color_to_ansi8.ansi8_cache, i32 noundef %13)
  %15 = add nsw i32 30, %14
  store i32 %15, ptr %4, align 4, !tbaa !115
  call void @llvm.lifetime.start.p0(i64 4, ptr %5) #13
  call void @llvm.lifetime.start.p0(i64 4, ptr %6) #13
  call void @llvm.lifetime.start.p0(i64 4, ptr %7) #13
  %16 = load i32, ptr %3, align 4, !tbaa !115
  call void @color_to_rgb(i32 noundef %16, ptr noundef %5, ptr noundef %6, ptr noundef %7)
  %17 = load i32, ptr %5, align 4, !tbaa !115
  %18 = icmp sge i32 %17, 196
  br i1 %18, label %25, label %19

19:                                               ; preds = %12
  %20 = load i32, ptr %6, align 4, !tbaa !115
  %21 = icmp sge i32 %20, 196
  br i1 %21, label %25, label %22

22:                                               ; preds = %19
  %23 = load i32, ptr %7, align 4, !tbaa !115
  %24 = icmp sge i32 %23, 196
  br i1 %24, label %25, label %28

25:                                               ; preds = %22, %19, %12
  %26 = load i32, ptr %4, align 4, !tbaa !115
  %27 = add nsw i32 %26, 60
  store i32 %27, ptr %4, align 4, !tbaa !115
  br label %28

28:                                               ; preds = %25, %22
  %29 = load i32, ptr %4, align 4, !tbaa !115
  store i32 %29, ptr %2, align 4
  call void @llvm.lifetime.end.p0(i64 4, ptr %7) #13
  call void @llvm.lifetime.end.p0(i64 4, ptr %6) #13
  call void @llvm.lifetime.end.p0(i64 4, ptr %5) #13
  call void @llvm.lifetime.end.p0(i64 4, ptr %4) #13
  br label %30

30:                                               ; preds = %28, %10
  %31 = load i32, ptr %2, align 4
  ret i32 %31
}

; Function Attrs: nounwind uwtable
define internal i64 @ic_strlen(ptr noundef %0) #0 {
  %2 = alloca i64, align 8
  %3 = alloca ptr, align 8
  store ptr %0, ptr %3, align 8, !tbaa !11
  %4 = load ptr, ptr %3, align 8, !tbaa !11
  %5 = icmp eq ptr %4, null
  br i1 %5, label %6, label %7

6:                                                ; preds = %1
  store i64 0, ptr %2, align 8
  br label %11

7:                                                ; preds = %1
  %8 = load ptr, ptr %3, align 8, !tbaa !11
  %9 = call i64 @strlen(ptr noundef %8) #14
  %10 = call i64 @to_ssize_t(i64 noundef %9)
  store i64 %10, ptr %2, align 8
  br label %11

11:                                               ; preds = %7, %6
  %12 = load i64, ptr %2, align 8
  ret i64 %12
}

; Function Attrs: nounwind uwtable
define internal void @fmt_color_rgb(ptr noundef %0, i64 noundef %1, i32 noundef %2, i1 noundef zeroext %3) #0 {
  %5 = alloca ptr, align 8
  %6 = alloca i64, align 8
  %7 = alloca i32, align 4
  %8 = alloca i8, align 1
  %9 = alloca i32, align 4
  %10 = alloca i32, align 4
  %11 = alloca i32, align 4
  store ptr %0, ptr %5, align 8, !tbaa !11
  store i64 %1, ptr %6, align 8, !tbaa !9
  store i32 %2, ptr %7, align 4, !tbaa !115
  %12 = zext i1 %3 to i8
  store i8 %12, ptr %8, align 1, !tbaa !132
  %13 = load i32, ptr %7, align 4, !tbaa !115
  %14 = call zeroext i1 @color_is_rgb(i32 noundef %13)
  br i1 %14, label %21, label %15

15:                                               ; preds = %4
  %16 = load ptr, ptr %5, align 8, !tbaa !11
  %17 = load i64, ptr %6, align 8, !tbaa !9
  %18 = load i32, ptr %7, align 4, !tbaa !115
  %19 = load i8, ptr %8, align 1, !tbaa !132, !range !124, !noundef !125
  %20 = trunc i8 %19 to i1
  call void @fmt_color_ansi16(ptr noundef %16, i64 noundef %17, i32 noundef %18, i1 noundef zeroext %20)
  br label %33

21:                                               ; preds = %4
  call void @llvm.lifetime.start.p0(i64 4, ptr %9) #13
  call void @llvm.lifetime.start.p0(i64 4, ptr %10) #13
  call void @llvm.lifetime.start.p0(i64 4, ptr %11) #13
  %22 = load i32, ptr %7, align 4, !tbaa !115
  call void @color_to_rgb(i32 noundef %22, ptr noundef %9, ptr noundef %10, ptr noundef %11)
  %23 = load ptr, ptr %5, align 8, !tbaa !11
  %24 = load i64, ptr %6, align 8, !tbaa !9
  %25 = call i64 @to_size_t(i64 noundef %24)
  %26 = load i8, ptr %8, align 1, !tbaa !132, !range !124, !noundef !125
  %27 = trunc i8 %26 to i1
  %28 = select i1 %27, i32 48, i32 38
  %29 = load i32, ptr %9, align 4, !tbaa !115
  %30 = load i32, ptr %10, align 4, !tbaa !115
  %31 = load i32, ptr %11, align 4, !tbaa !115
  %32 = call i32 (ptr, i64, ptr, ...) @snprintf(ptr noundef %23, i64 noundef %25, ptr noundef @.str.431, i32 noundef %28, i32 noundef %29, i32 noundef %30, i32 noundef %31) #13
  call void @llvm.lifetime.end.p0(i64 4, ptr %11) #13
  call void @llvm.lifetime.end.p0(i64 4, ptr %10) #13
  call void @llvm.lifetime.end.p0(i64 4, ptr %9) #13
  br label %33

33:                                               ; preds = %21, %15
  ret void
}

; Function Attrs: nounwind uwtable
define internal void @fmt_color_ansi256(ptr noundef %0, i64 noundef %1, i32 noundef %2, i1 noundef zeroext %3) #0 {
  %5 = alloca ptr, align 8
  %6 = alloca i64, align 8
  %7 = alloca i32, align 4
  %8 = alloca i8, align 1
  store ptr %0, ptr %5, align 8, !tbaa !11
  store i64 %1, ptr %6, align 8, !tbaa !9
  store i32 %2, ptr %7, align 4, !tbaa !115
  %9 = zext i1 %3 to i8
  store i8 %9, ptr %8, align 1, !tbaa !132
  %10 = load i32, ptr %7, align 4, !tbaa !115
  %11 = call zeroext i1 @color_is_rgb(i32 noundef %10)
  br i1 %11, label %18, label %12

12:                                               ; preds = %4
  %13 = load ptr, ptr %5, align 8, !tbaa !11
  %14 = load i64, ptr %6, align 8, !tbaa !9
  %15 = load i32, ptr %7, align 4, !tbaa !115
  %16 = load i8, ptr %8, align 1, !tbaa !132, !range !124, !noundef !125
  %17 = trunc i8 %16 to i1
  call void @fmt_color_ansi16(ptr noundef %13, i64 noundef %14, i32 noundef %15, i1 noundef zeroext %17)
  br label %28

18:                                               ; preds = %4
  %19 = load ptr, ptr %5, align 8, !tbaa !11
  %20 = load i64, ptr %6, align 8, !tbaa !9
  %21 = call i64 @to_size_t(i64 noundef %20)
  %22 = load i8, ptr %8, align 1, !tbaa !132, !range !124, !noundef !125
  %23 = trunc i8 %22 to i1
  %24 = select i1 %23, i32 48, i32 38
  %25 = load i32, ptr %7, align 4, !tbaa !115
  %26 = call i32 @rgb_to_ansi256(i32 noundef %25)
  %27 = call i32 (ptr, i64, ptr, ...) @snprintf(ptr noundef %19, i64 noundef %21, ptr noundef @.str.430, i32 noundef %24, i32 noundef %26) #13
  br label %28

28:                                               ; preds = %18, %12
  ret void
}

; Function Attrs: nounwind uwtable
define internal void @fmt_color_ansi16(ptr noundef %0, i64 noundef %1, i32 noundef %2, i1 noundef zeroext %3) #0 {
  %5 = alloca ptr, align 8
  %6 = alloca i64, align 8
  %7 = alloca i32, align 4
  %8 = alloca i8, align 1
  store ptr %0, ptr %5, align 8, !tbaa !11
  store i64 %1, ptr %6, align 8, !tbaa !9
  store i32 %2, ptr %7, align 4, !tbaa !115
  %9 = zext i1 %3 to i8
  store i8 %9, ptr %8, align 1, !tbaa !132
  %10 = load ptr, ptr %5, align 8, !tbaa !11
  %11 = load i64, ptr %6, align 8, !tbaa !9
  %12 = call i64 @to_size_t(i64 noundef %11)
  %13 = load i32, ptr %7, align 4, !tbaa !115
  %14 = call i32 @color_to_ansi16(i32 noundef %13)
  %15 = load i8, ptr %8, align 1, !tbaa !132, !range !124, !noundef !125
  %16 = trunc i8 %15 to i1
  %17 = select i1 %16, i32 10, i32 0
  %18 = add nsw i32 %14, %17
  %19 = call i32 (ptr, i64, ptr, ...) @snprintf(ptr noundef %10, i64 noundef %12, ptr noundef @.str.429, i32 noundef %18) #13
  ret void
}

; Function Attrs: nounwind uwtable
define internal zeroext i1 @color_is_rgb(i32 noundef %0) #0 {
  %2 = alloca i32, align 4
  store i32 %0, ptr %2, align 4, !tbaa !115
  %3 = load i32, ptr %2, align 4, !tbaa !115
  %4 = icmp uge i32 %3, 16777216
  ret i1 %4
}

; Function Attrs: nounwind uwtable
define internal void @fmt_color_ansi8(ptr noundef %0, i64 noundef %1, i32 noundef %2, i1 noundef zeroext %3) #0 {
  %5 = alloca ptr, align 8
  %6 = alloca i64, align 8
  %7 = alloca i32, align 4
  %8 = alloca i8, align 1
  %9 = alloca i32, align 4
  store ptr %0, ptr %5, align 8, !tbaa !11
  store i64 %1, ptr %6, align 8, !tbaa !9
  store i32 %2, ptr %7, align 4, !tbaa !115
  %10 = zext i1 %3 to i8
  store i8 %10, ptr %8, align 1, !tbaa !132
  call void @llvm.lifetime.start.p0(i64 4, ptr %9) #13
  %11 = load i32, ptr %7, align 4, !tbaa !115
  %12 = call i32 @color_to_ansi8(i32 noundef %11)
  %13 = load i8, ptr %8, align 1, !tbaa !132, !range !124, !noundef !125
  %14 = trunc i8 %13 to i1
  %15 = select i1 %14, i32 10, i32 0
  %16 = add nsw i32 %12, %15
  store i32 %16, ptr %9, align 4, !tbaa !115
  %17 = load i32, ptr %9, align 4, !tbaa !115
  %18 = icmp sge i32 %17, 90
  br i1 %18, label %19, label %26

19:                                               ; preds = %4
  %20 = load ptr, ptr %5, align 8, !tbaa !11
  %21 = load i64, ptr %6, align 8, !tbaa !9
  %22 = call i64 @to_size_t(i64 noundef %21)
  %23 = load i32, ptr %9, align 4, !tbaa !115
  %24 = sub nsw i32 %23, 60
  %25 = call i32 (ptr, i64, ptr, ...) @snprintf(ptr noundef %20, i64 noundef %22, ptr noundef @.str.427, i32 noundef %24) #13
  br label %32

26:                                               ; preds = %4
  %27 = load ptr, ptr %5, align 8, !tbaa !11
  %28 = load i64, ptr %6, align 8, !tbaa !9
  %29 = call i64 @to_size_t(i64 noundef %28)
  %30 = load i32, ptr %9, align 4, !tbaa !115
  %31 = call i32 (ptr, i64, ptr, ...) @snprintf(ptr noundef %27, i64 noundef %29, ptr noundef @.str.428, i32 noundef %30) #13
  br label %32

32:                                               ; preds = %26, %19
  call void @llvm.lifetime.end.p0(i64 4, ptr %9) #13
  ret void
}

; Function Attrs: nounwind uwtable
define internal void @term_write(ptr noundef %0, ptr noundef %1) #0 {
  %3 = alloca ptr, align 8
  %4 = alloca ptr, align 8
  %5 = alloca i64, align 8
  store ptr %0, ptr %3, align 8, !tbaa !129
  store ptr %1, ptr %4, align 8, !tbaa !11
  %6 = load ptr, ptr %4, align 8, !tbaa !11
  %7 = icmp eq ptr %6, null
  br i1 %7, label %14, label %8

8:                                                ; preds = %2
  %9 = load ptr, ptr %4, align 8, !tbaa !11
  %10 = getelementptr inbounds i8, ptr %9, i64 0
  %11 = load i8, ptr %10, align 1, !tbaa !13
  %12 = sext i8 %11 to i32
  %13 = icmp eq i32 %12, 0
  br i1 %13, label %14, label %15

14:                                               ; preds = %8, %2
  br label %21

15:                                               ; preds = %8
  call void @llvm.lifetime.start.p0(i64 8, ptr %5) #13
  %16 = load ptr, ptr %4, align 8, !tbaa !11
  %17 = call i64 @ic_strlen(ptr noundef %16)
  store i64 %17, ptr %5, align 8, !tbaa !9
  %18 = load ptr, ptr %3, align 8, !tbaa !129
  %19 = load ptr, ptr %4, align 8, !tbaa !11
  %20 = load i64, ptr %5, align 8, !tbaa !9
  call void @term_write_n(ptr noundef %18, ptr noundef %19, i64 noundef %20)
  call void @llvm.lifetime.end.p0(i64 8, ptr %5) #13
  br label %21

21:                                               ; preds = %15, %14
  ret void
}

; Function Attrs: nounwind uwtable
define internal void @fmt_color_ex(ptr noundef %0, i64 noundef %1, i32 noundef %2, i32 noundef %3, i1 noundef zeroext %4) #0 {
  %6 = alloca ptr, align 8
  %7 = alloca i64, align 8
  %8 = alloca i32, align 4
  %9 = alloca i32, align 4
  %10 = alloca i8, align 1
  store ptr %0, ptr %6, align 8, !tbaa !11
  store i64 %1, ptr %7, align 8, !tbaa !9
  store i32 %2, ptr %8, align 4, !tbaa !115
  store i32 %3, ptr %9, align 4, !tbaa !115
  %11 = zext i1 %4 to i8
  store i8 %11, ptr %10, align 1, !tbaa !132
  %12 = load i32, ptr %9, align 4, !tbaa !115
  %13 = icmp eq i32 %12, 0
  br i1 %13, label %17, label %14

14:                                               ; preds = %5
  %15 = load i32, ptr %8, align 4, !tbaa !115
  %16 = icmp eq i32 %15, 0
  br i1 %16, label %17, label %18

17:                                               ; preds = %14, %5
  br label %56

18:                                               ; preds = %14
  %19 = load i32, ptr %8, align 4, !tbaa !115
  %20 = icmp eq i32 %19, 1
  br i1 %20, label %21, label %27

21:                                               ; preds = %18
  %22 = load ptr, ptr %6, align 8, !tbaa !11
  %23 = load i64, ptr %7, align 8, !tbaa !9
  %24 = load i32, ptr %9, align 4, !tbaa !115
  %25 = load i8, ptr %10, align 1, !tbaa !132, !range !124, !noundef !125
  %26 = trunc i8 %25 to i1
  call void @fmt_color_ansi8(ptr noundef %22, i64 noundef %23, i32 noundef %24, i1 noundef zeroext %26)
  br label %56

27:                                               ; preds = %18
  %28 = load i32, ptr %9, align 4, !tbaa !115
  %29 = call zeroext i1 @color_is_rgb(i32 noundef %28)
  br i1 %29, label %30, label %33

30:                                               ; preds = %27
  %31 = load i32, ptr %8, align 4, !tbaa !115
  %32 = icmp eq i32 %31, 2
  br i1 %32, label %33, label %39

33:                                               ; preds = %30, %27
  %34 = load ptr, ptr %6, align 8, !tbaa !11
  %35 = load i64, ptr %7, align 8, !tbaa !9
  %36 = load i32, ptr %9, align 4, !tbaa !115
  %37 = load i8, ptr %10, align 1, !tbaa !132, !range !124, !noundef !125
  %38 = trunc i8 %37 to i1
  call void @fmt_color_ansi16(ptr noundef %34, i64 noundef %35, i32 noundef %36, i1 noundef zeroext %38)
  br label %55

39:                                               ; preds = %30
  %40 = load i32, ptr %8, align 4, !tbaa !115
  %41 = icmp eq i32 %40, 3
  br i1 %41, label %42, label %48

42:                                               ; preds = %39
  %43 = load ptr, ptr %6, align 8, !tbaa !11
  %44 = load i64, ptr %7, align 8, !tbaa !9
  %45 = load i32, ptr %9, align 4, !tbaa !115
  %46 = load i8, ptr %10, align 1, !tbaa !132, !range !124, !noundef !125
  %47 = trunc i8 %46 to i1
  call void @fmt_color_ansi256(ptr noundef %43, i64 noundef %44, i32 noundef %45, i1 noundef zeroext %47)
  br label %54

48:                                               ; preds = %39
  %49 = load ptr, ptr %6, align 8, !tbaa !11
  %50 = load i64, ptr %7, align 8, !tbaa !9
  %51 = load i32, ptr %9, align 4, !tbaa !115
  %52 = load i8, ptr %10, align 1, !tbaa !132, !range !124, !noundef !125
  %53 = trunc i8 %52 to i1
  call void @fmt_color_rgb(ptr noundef %49, i64 noundef %50, i32 noundef %51, i1 noundef zeroext %53)
  br label %54

54:                                               ; preds = %48, %42
  br label %55

55:                                               ; preds = %54, %33
  br label %56

56:                                               ; preds = %17, %55, %21
  ret void
}

; Function Attrs: nounwind uwtable
define internal void @term_color_ex(ptr noundef %0, i32 noundef %1, i1 noundef zeroext %2) #0 {
  %4 = alloca ptr, align 8
  %5 = alloca i32, align 4
  %6 = alloca i8, align 1
  %7 = alloca [129 x i8], align 16
  store ptr %0, ptr %4, align 8, !tbaa !129
  store i32 %1, ptr %5, align 4, !tbaa !115
  %8 = zext i1 %2 to i8
  store i8 %8, ptr %6, align 1, !tbaa !132
  call void @llvm.lifetime.start.p0(i64 129, ptr %7) #13
  %9 = getelementptr inbounds [129 x i8], ptr %7, i64 0, i64 0
  %10 = load ptr, ptr %4, align 8, !tbaa !129
  %11 = getelementptr inbounds nuw %struct.term_s, ptr %10, i32 0, i32 8
  %12 = load i32, ptr %11, align 8, !tbaa !178
  %13 = load i32, ptr %5, align 4, !tbaa !115
  %14 = load i8, ptr %6, align 1, !tbaa !132, !range !124, !noundef !125
  %15 = trunc i8 %14 to i1
  call void @fmt_color_ex(ptr noundef %9, i64 noundef 128, i32 noundef %12, i32 noundef %13, i1 noundef zeroext %15)
  %16 = load ptr, ptr %4, align 8, !tbaa !129
  %17 = getelementptr inbounds [129 x i8], ptr %7, i64 0, i64 0
  call void @term_write(ptr noundef %16, ptr noundef %17)
  call void @llvm.lifetime.end.p0(i64 129, ptr %7) #13
  ret void
}