; Function Attrs: nounwind uwtable
define internal fastcc void @term_color_ex(ptr noundef captures(none) %0, i32 noundef range(i32 1, 0) %1, i1 noundef zeroext %2) unnamed_addr #0 {
  %4 = alloca [129 x i8], align 16
  call void @llvm.lifetime.start.p0(i64 129, ptr nonnull %4) #32
  %5 = getelementptr inbounds nuw i8, ptr %0, i64 48
  %6 = load i32, ptr %5, align 8, !tbaa !174
  switch i32 %6, label %25 [
    i32 0, label %fmt_color_ex.exit
    i32 1, label %7
  ]

7:                                                ; preds = %3
  %8 = icmp ugt i32 %1, 16777215
  br i1 %8, label %9, label %color_to_ansi8.exit.i.i

9:                                                ; preds = %7
  %10 = tail call fastcc i32 @rgb_match(i32 noundef 0, i32 noundef 8, ptr noundef nonnull @color_to_ansi8.ansi8_cache, i32 noundef range(i32 1, 0) %1)
  %11 = and i32 %1, 252
  %12 = and i32 %1, 16515072
  %13 = icmp samesign ugt i32 %12, 12779520
  %14 = and i32 %1, 64512
  %15 = icmp samesign ugt i32 %14, 49920
  %or.cond.i.i.i = select i1 %13, i1 true, i1 %15
  %16 = icmp samesign ugt i32 %11, 195
  %or.cond3.i.i.i = select i1 %or.cond.i.i.i, i1 true, i1 %16
  %spec.select.v.i.i.i = select i1 %or.cond3.i.i.i, i32 90, i32 30
  %spec.select.i.i.i = add nsw i32 %10, %spec.select.v.i.i.i
  br label %color_to_ansi8.exit.i.i

color_to_ansi8.exit.i.i:                          ; preds = %9, %7
  %.010.i.i.i = phi i32 [ %spec.select.i.i.i, %9 ], [ %1, %7 ]
  %17 = select i1 %2, i32 10, i32 0
  %18 = add nsw i32 %.010.i.i.i, %17
  %19 = icmp sgt i32 %18, 89
  br i1 %19, label %20, label %23

20:                                               ; preds = %color_to_ansi8.exit.i.i
  %21 = add nsw i32 %18, -60
  %22 = call i32 (ptr, i64, ptr, ...) @snprintf(ptr noundef nonnull dereferenceable(1) %4, i64 noundef 128, ptr noundef nonnull @.str.427, i32 noundef %21) #32
  br label %fmt_color_ex.exit

23:                                               ; preds = %color_to_ansi8.exit.i.i
  %24 = call i32 (ptr, i64, ptr, ...) @snprintf(ptr noundef nonnull dereferenceable(1) %4, i64 noundef 128, ptr noundef nonnull @.str.428, i32 noundef %18) #32
  br label %fmt_color_ex.exit

25:                                               ; preds = %3
  %26 = icmp ugt i32 %1, 16777215
  %27 = icmp ne i32 %6, 2
  %or.cond3.not.i = and i1 %26, %27
  br i1 %or.cond3.not.i, label %36, label %28

28:                                               ; preds = %25
  br i1 %26, label %29, label %fmt_color_ansi16.exit.i

29:                                               ; preds = %28
  %30 = tail call fastcc i32 @rgb_match(i32 noundef 0, i32 noundef 16, ptr noundef nonnull @color_to_ansi16.ansi16_cache, i32 noundef range(i32 1, 0) %1)
  %31 = icmp slt i32 %30, 8
  %.v.i.i.i = select i1 %31, i32 30, i32 82
  %32 = add nsw i32 %.v.i.i.i, %30
  br label %fmt_color_ansi16.exit.i

fmt_color_ansi16.exit.i:                          ; preds = %29, %28
  %.0.i.i.i = phi i32 [ %32, %29 ], [ %1, %28 ]
  %33 = select i1 %2, i32 10, i32 0
  %34 = add nsw i32 %.0.i.i.i, %33
  %35 = call i32 (ptr, i64, ptr, ...) @snprintf(ptr noundef nonnull dereferenceable(1) %4, i64 noundef 128, ptr noundef nonnull @.str.429, i32 noundef %34) #32
  br label %fmt_color_ex.exit

36:                                               ; preds = %25
  %37 = icmp eq i32 %6, 3
  br i1 %37, label %fmt_color_ansi256.exit.i, label %fmt_color_rgb.exit.i

fmt_color_ansi256.exit.i:                         ; preds = %36
  %38 = select i1 %2, i32 48, i32 38
  %39 = tail call fastcc i32 @rgb_match(i32 noundef 16, i32 noundef 256, ptr noundef nonnull @rgb_to_ansi256.ansi256_cache, i32 noundef range(i32 1, 0) %1)
  %40 = call i32 (ptr, i64, ptr, ...) @snprintf(ptr noundef nonnull dereferenceable(1) %4, i64 noundef 128, ptr noundef nonnull @.str.430, i32 noundef %38, i32 noundef %39) #32
  br label %fmt_color_ex.exit

fmt_color_rgb.exit.i:                             ; preds = %36
  %41 = lshr i32 %1, 16
  %42 = and i32 %41, 255
  %43 = lshr i32 %1, 8
  %44 = and i32 %43, 255
  %45 = and i32 %1, 255
  %46 = select i1 %2, i32 48, i32 38
  %47 = call i32 (ptr, i64, ptr, ...) @snprintf(ptr noundef nonnull dereferenceable(1) %4, i64 noundef 128, ptr noundef nonnull @.str.431, i32 noundef %46, i32 noundef %42, i32 noundef %44, i32 noundef %45) #32
  br label %fmt_color_ex.exit

fmt_color_ex.exit:                                ; preds = %3, %20, %23, %fmt_color_ansi16.exit.i, %fmt_color_ansi256.exit.i, %fmt_color_rgb.exit.i
  %48 = load i8, ptr %4, align 16, !tbaa !4
  %49 = icmp eq i8 %48, 0
  br i1 %49, label %term_write.exit, label %ic_strlen.exit.i

ic_strlen.exit.i:                                 ; preds = %fmt_color_ex.exit
  %50 = call i64 @strlen(ptr noundef nonnull readonly dereferenceable(1) %4) #33
  %51 = tail call noundef range(i64 0, -9223372036854775808) i64 @llvm.smax.i64(i64 %50, i64 0)
  call fastcc void @term_write_n(ptr noundef nonnull %0, ptr noundef nonnull %4, i64 noundef %51)
  br label %term_write.exit

term_write.exit:                                  ; preds = %fmt_color_ex.exit, %ic_strlen.exit.i
  call void @llvm.lifetime.end.p0(i64 129, ptr nonnull %4) #32
  ret void
}